; ModuleID = 'source-C-CXX/44/1692.c'
source_filename = "source-C-CXX/44/1692.c"
target datalayout = "e-m:e-p270:32:32-p271:32:32-p272:64:64-i64:64-f80:128-n8:16:32:64-S128"
target triple = "x86_64-pc-linux-gnu"

@.str = private unnamed_addr constant [6 x i8] c"%s %s\00", align 1
@.str.1 = private unnamed_addr constant [3 x i8] c"%d\00", align 1

; Function Attrs: nofree nounwind sspstrong uwtable
define dso_local i32 @main() local_unnamed_addr #0 {
  %1 = alloca [50 x i8], align 16
  %2 = alloca [50 x i8], align 16
  %3 = alloca [50 x i8], align 16
  %4 = getelementptr inbounds [50 x i8], [50 x i8]* %3, i64 0, i64 0
  %5 = getelementptr inbounds [50 x i8], [50 x i8]* %1, i64 0, i64 0
  call void @llvm.lifetime.start.p0i8(i64 50, i8* nonnull %5) #5
  %6 = getelementptr inbounds [50 x i8], [50 x i8]* %2, i64 0, i64 0
  call void @llvm.lifetime.start.p0i8(i64 50, i8* nonnull %6) #5
  %7 = getelementptr inbounds [50 x i8], [50 x i8]* %3, i64 0, i64 0
  call void @llvm.lifetime.start.p0i8(i64 50, i8* nonnull %7) #5
  %8 = call i32 (i8*, ...) @__isoc99_scanf(i8* getelementptr inbounds ([6 x i8], [6 x i8]* @.str, i64 0, i64 0), i8* nonnull %5, i8* nonnull %6)
  %9 = call i64 @strlen(i8* noundef nonnull %6) #6
  %10 = call i64 @strlen(i8* noundef nonnull %5) #6
  %11 = sub i64 %9, %10
  %12 = trunc i64 %11 to i32
  %13 = icmp sgt i32 %12, 0
  br i1 %13, label %14, label %39

14:                                               ; preds = %0
  %15 = trunc i64 %10 to i32
  %16 = icmp sgt i32 %15, 0
  br i1 %16, label %17, label %32

17:                                               ; preds = %14
  %18 = and i64 %10, 4294967295
  %19 = and i64 %11, 4294967295
  %20 = and i64 %10, 4294967295
  %21 = getelementptr inbounds [50 x i8], [50 x i8]* %3, i64 0, i64 %20
  br label %22

22:                                               ; preds = %17, %28
  %23 = phi i64 [ 0, %17 ], [ %30, %28 ]
  %24 = phi i32 [ 0, %17 ], [ %29, %28 ]
  %25 = getelementptr [50 x i8], [50 x i8]* %2, i64 0, i64 %23
  call void @llvm.memcpy.p0i8.p0i8.i64(i8* nonnull align 16 %4, i8* align 1 %25, i64 %18, i1 false)
  store i8 0, i8* %21, align 1, !tbaa !5
  %26 = call i32 @strcmp(i8* noundef nonnull %7, i8* noundef nonnull %5) #6
  %27 = icmp eq i32 %26, 0
  br i1 %27, label %39, label %28

28:                                               ; preds = %22
  %29 = add nuw nsw i32 %24, 1
  %30 = add nuw nsw i64 %23, 1
  %31 = icmp eq i64 %30, %19
  br i1 %31, label %39, label %22, !llvm.loop !8

32:                                               ; preds = %14, %36
  %33 = phi i32 [ %37, %36 ], [ 0, %14 ]
  store i8 0, i8* %7, align 16, !tbaa !5
  %34 = call i32 @strcmp(i8* noundef nonnull %7, i8* noundef nonnull %5) #6
  %35 = icmp eq i32 %34, 0
  br i1 %35, label %39, label %36

36:                                               ; preds = %32
  %37 = add nuw nsw i32 %33, 1
  %38 = icmp eq i32 %37, %12
  br i1 %38, label %39, label %32, !llvm.loop !8

39:                                               ; preds = %36, %32, %28, %22, %0
  %40 = phi i32 [ 0, %0 ], [ %24, %22 ], [ %12, %28 ], [ %33, %32 ], [ %12, %36 ]
  %41 = call i32 (i8*, ...) @printf(i8* nonnull dereferenceable(1) getelementptr inbounds ([3 x i8], [3 x i8]* @.str.1, i64 0, i64 0), i32 %40)
  call void @llvm.lifetime.end.p0i8(i64 50, i8* nonnull %7) #5
  call void @llvm.lifetime.end.p0i8(i64 50, i8* nonnull %6) #5
  call void @llvm.lifetime.end.p0i8(i64 50, i8* nonnull %5) #5
  ret i32 0
}

; Function Attrs: argmemonly mustprogress nofree nosync nounwind willreturn
declare void @llvm.lifetime.start.p0i8(i64 immarg, i8* nocapture) #1

; Function Attrs: nofree nounwind
declare noundef i32 @__isoc99_scanf(i8* nocapture noundef readonly, ...) local_unnamed_addr #2

; Function Attrs: argmemonly mustprogress nofree nounwind readonly willreturn
declare i64 @strlen(i8* nocapture) local_unnamed_addr #3

; Function Attrs: argmemonly mustprogress nofree nounwind readonly willreturn
declare i32 @strcmp(i8* nocapture, i8* nocapture) local_unnamed_addr #3

; Function Attrs: nofree nounwind
declare noundef i32 @printf(i8* nocapture noundef readonly, ...) local_unnamed_addr #2

; Function Attrs: argmemonly mustprogress nofree nosync nounwind willreturn
declare void @llvm.lifetime.end.p0i8(i64 immarg, i8* nocapture) #1

; Function Attrs: argmemonly nofree nounwind willreturn
declare void @llvm.memcpy.p0i8.p0i8.i64(i8* noalias nocapture writeonly, i8* noalias nocapture readonly, i64, i1 immarg) #4


!llvm.module.flags = !{!0, !1, !2, !3}
!llvm.ident = !{!4}

!0 = !{i32 1, !"wchar_size", i32 4}
!1 = !{i32 7, !"PIC Level", i32 2}
!2 = !{i32 7, !"PIE Level", i32 2}
!3 = !{i32 7, !"uwtable", i32 1}
!4 = !{!"clang version 13.0.0"}
!5 = !{!6, !6, i64 0}
!6 = !{!"omnipotent char", !7, i64 0}
!7 = !{!"Simple C/C++ TBAA"}
!8 = distinct !{!8, !9}
!9 = !{!"llvm.loop.mustprogress"}
